(dp1
S'rho_star'
p2
cnumpy.core.multiarray
scalar
p3
(cnumpy
dtype
p4
(S'f8'
I0
I1
tRp5
(I3
S'<'
NNNI-1
I-1
I0
tbS'\x9cr\xf2\xe2\x96\xcd\xa7?'
tRp6
sS'q_star'
p7
g3
(g5
S'~s\x1b\xa6\xf7\x04\xde?'
tRp8
sS'lambda_1'
p9
g3
(g5
S'!b\xee\x01\xb2-$@'
tRp10
sS'lambda_2'
p11
g3
(g5
S'\xd8<%3\xac\x11\x0f\xc0'
tRp12
sS'v_star'
p13
g10
s.