(dp1
S'rho_star'
p2
cnumpy.core.multiarray
scalar
p3
(cnumpy
dtype
p4
(S'f8'
I0
I1
tRp5
(I3
S'<'
NNNI-1
I-1
I0
tbS'\xafjKsA\xc0\xa7?'
tRp6
sS'q_star'
p7
g3
(g5
S'\xdf\x94g\xa6r!\xde?'
tRp8
sS'lambda_1'
p9
g3
(g5
S'\xe77e\xa35L$@'
tRp10
sS'lambda_2'
p11
g3
(g5
S'\xb6\xe5\x95\x8f\x8e\xab\r\xc0'
tRp12
sS'v_star'
p13
g10
s.