(dp1
S'rho_star'
p2
cnumpy.core.multiarray
scalar
p3
(cnumpy
dtype
p4
(S'f8'
I0
I1
tRp5
(I3
S'<'
NNNI-1
I-1
I0
tbS'9\x05\x8f\xb3n\xc5\xa7?'
tRp6
sS'q_star'
p7
g3
(g5
S'\xe6\xaf\xd0\x187(\xde?'
tRp8
sS'lambda_1'
p9
g3
(g5
S'\xab\xc8\x0e\x1eXL$@'
tRp10
sS'lambda_2'
p11
g3
(g5
S"\x81~\x91&'\xb7\x0c\xc0"
tRp12
sS'v_star'
p13
g10
s.