(dp1
S'rho_star'
p2
cnumpy.core.multiarray
scalar
p3
(cnumpy
dtype
p4
(S'f8'
I0
I1
tRp5
(I3
S'<'
NNNI-1
I-1
I0
tbS'\xf1jx\x1d\xba\x8f\xa5?'
tRp6
sS'q_star'
p7
g3
(g5
S'\xefI\xfd\x83\xd0%\xdb?'
tRp8
sS'lambda_1'
p9
g3
(g5
S'\xfe\xac5\x078%$@'
tRp10
sS'lambda_2'
p11
g3
(g5
S'\xfbNL~?\x03\x10\xc0'
tRp12
sS'v_star'
p13
g10
s.